target datalayout = "e-m:e-p270:32:32-p271:32:32-p272:64:64-i64:64-i128:128-f80:128-n8:16:32:64-S128"
target triple = "x86_64-pc-linux-gnu"

%struct.ShowCQTContext = type { ptr, ptr, ptr, ptr, i32, i32, i32, i32, %struct.AVRational, i32, i32, i32, i64, ptr, ptr, ptr, ptr, ptr, ptr, ptr, ptr, ptr, i32, i32, i32, i32, ptr, ptr, ptr, ptr, ptr, [3 x [3 x float]], [6 x float], ptr, ptr, ptr, ptr, ptr, ptr, i64, i64, i64, i64, i64, i64, i64, i64, i32, i32, %struct.AVRational, i32, i32, i32, i32, ptr, ptr, float, float, float, double, double, double, double, float, ptr, i32, i32, ptr, ptr, ptr, ptr, i32, i32, ptr }
%struct.AVRational = type { i32, i32 }

@.str.115 = private unnamed_addr constant [33 x i8] c" %f | %f | %f | %f | %f | %f %1s\00", align 1
@.str.116 = private unnamed_addr constant [18 x i8] c"invalid cscheme.\0A\00", align 1

; Function Attrs: nounwind uwtable
define internal i32 @init_cscheme(ptr noundef %0) #1 {
  %2 = alloca i32, align 4
  %3 = alloca ptr, align 8
  %4 = alloca [2 x i8], align 1
  %5 = alloca i32, align 4
  %6 = alloca i32, align 4
  store ptr %0, ptr %3, align 8, !tbaa !22
  call void @llvm.lifetime.start.p0(i64 2, ptr %4) #12
  call void @llvm.lifetime.start.p0(i64 4, ptr %5) #12
  %7 = load ptr, ptr %3, align 8, !tbaa !22
  %8 = getelementptr inbounds nuw %struct.ShowCQTContext, ptr %7, i32 0, i32 73
  %9 = load ptr, ptr %8, align 8, !tbaa !195
  %10 = load ptr, ptr %3, align 8, !tbaa !22
  %11 = getelementptr inbounds nuw %struct.ShowCQTContext, ptr %10, i32 0, i32 32
  %12 = getelementptr inbounds [6 x float], ptr %11, i64 0, i64 0
  %13 = load ptr, ptr %3, align 8, !tbaa !22
  %14 = getelementptr inbounds nuw %struct.ShowCQTContext, ptr %13, i32 0, i32 32
  %15 = getelementptr inbounds [6 x float], ptr %14, i64 0, i64 1
  %16 = load ptr, ptr %3, align 8, !tbaa !22
  %17 = getelementptr inbounds nuw %struct.ShowCQTContext, ptr %16, i32 0, i32 32
  %18 = getelementptr inbounds [6 x float], ptr %17, i64 0, i64 2
  %19 = load ptr, ptr %3, align 8, !tbaa !22
  %20 = getelementptr inbounds nuw %struct.ShowCQTContext, ptr %19, i32 0, i32 32
  %21 = getelementptr inbounds [6 x float], ptr %20, i64 0, i64 3
  %22 = load ptr, ptr %3, align 8, !tbaa !22
  %23 = getelementptr inbounds nuw %struct.ShowCQTContext, ptr %22, i32 0, i32 32
  %24 = getelementptr inbounds [6 x float], ptr %23, i64 0, i64 4
  %25 = load ptr, ptr %3, align 8, !tbaa !22
  %26 = getelementptr inbounds nuw %struct.ShowCQTContext, ptr %25, i32 0, i32 32
  %27 = getelementptr inbounds [6 x float], ptr %26, i64 0, i64 5
  %28 = getelementptr inbounds [2 x i8], ptr %4, i64 0, i64 0
  %29 = call i32 (ptr, ptr, ...) @__isoc99_sscanf(ptr noundef %9, ptr noundef @.str.115, ptr noundef %12, ptr noundef %15, ptr noundef %18, ptr noundef %21, ptr noundef %24, ptr noundef %27, ptr noundef %28) #12
  %30 = icmp ne i32 %29, 6
  br i1 %30, label %31, label %32

31:                                               ; preds = %1
  br label %66

32:                                               ; preds = %1
  store i32 0, ptr %5, align 4, !tbaa !50
  br label %33

33:                                               ; preds = %62, %32
  %34 = load i32, ptr %5, align 4, !tbaa !50
  %35 = icmp slt i32 %34, 6
  br i1 %35, label %36, label %65

36:                                               ; preds = %33
  %37 = load ptr, ptr %3, align 8, !tbaa !22
  %38 = getelementptr inbounds nuw %struct.ShowCQTContext, ptr %37, i32 0, i32 32
  %39 = load i32, ptr %5, align 4, !tbaa !50
  %40 = sext i32 %39 to i64
  %41 = getelementptr inbounds [6 x float], ptr %38, i64 0, i64 %40
  %42 = load float, ptr %41, align 4, !tbaa !70
  %43 = call i1 @llvm.is.fpclass.f32(float %42, i32 3)
  br i1 %43, label %60, label %44

44:                                               ; preds = %36
  %45 = load ptr, ptr %3, align 8, !tbaa !22
  %46 = getelementptr inbounds nuw %struct.ShowCQTContext, ptr %45, i32 0, i32 32
  %47 = load i32, ptr %5, align 4, !tbaa !50
  %48 = sext i32 %47 to i64
  %49 = getelementptr inbounds [6 x float], ptr %46, i64 0, i64 %48
  %50 = load float, ptr %49, align 4, !tbaa !70
  %51 = fcmp nsz olt float %50, 0.000000e+00
  br i1 %51, label %60, label %52

52:                                               ; preds = %44
  %53 = load ptr, ptr %3, align 8, !tbaa !22
  %54 = getelementptr inbounds nuw %struct.ShowCQTContext, ptr %53, i32 0, i32 32
  %55 = load i32, ptr %5, align 4, !tbaa !50
  %56 = sext i32 %55 to i64
  %57 = getelementptr inbounds [6 x float], ptr %54, i64 0, i64 %56
  %58 = load float, ptr %57, align 4, !tbaa !70
  %59 = fcmp nsz ogt float %58, 1.000000e+00
  br i1 %59, label %60, label %61

60:                                               ; preds = %52, %44, %36
  br label %66

61:                                               ; preds = %52
  br label %62

62:                                               ; preds = %61
  %63 = load i32, ptr %5, align 4, !tbaa !50
  %64 = add nsw i32 %63, 1
  store i32 %64, ptr %5, align 4, !tbaa !50
  br label %33, !llvm.loop !196

65:                                               ; preds = %33
  store i32 0, ptr %2, align 4
  store i32 1, ptr %6, align 4
  br label %70

66:                                               ; preds = %60, %31
  %67 = load ptr, ptr %3, align 8, !tbaa !22
  %68 = getelementptr inbounds nuw %struct.ShowCQTContext, ptr %67, i32 0, i32 1
  %69 = load ptr, ptr %68, align 8, !tbaa !24
  call void (ptr, i32, ptr, ...) @av_log(ptr noundef %69, i32 noundef 16, ptr noundef @.str.116)
  store i32 -22, ptr %2, align 4
  store i32 1, ptr %6, align 4
  br label %70

70:                                               ; preds = %66, %65
  call void @llvm.lifetime.end.p0(i64 4, ptr %5) #12
  call void @llvm.lifetime.end.p0(i64 2, ptr %4) #12
  %71 = load i32, ptr %2, align 4
  ret i32 %71
}