; Function Attrs: nounwind uwtable
define internal fastcc range(i32 -22, 1) i32 @init_cscheme(ptr noundef %0) unnamed_addr #1 {
  %2 = alloca [2 x i8], align 1
  call void @llvm.lifetime.start.p0(i64 2, ptr nonnull %2) #15
  %3 = getelementptr inbounds nuw i8, ptr %0, i64 544
  %4 = load ptr, ptr %3, align 8, !tbaa !179
  %5 = getelementptr inbounds nuw i8, ptr %0, i64 244
  %6 = getelementptr inbounds nuw i8, ptr %0, i64 248
  %7 = getelementptr inbounds nuw i8, ptr %0, i64 252
  %8 = getelementptr inbounds nuw i8, ptr %0, i64 256
  %9 = getelementptr inbounds nuw i8, ptr %0, i64 260
  %10 = getelementptr inbounds nuw i8, ptr %0, i64 264
  %11 = call i32 (ptr, ptr, ...) @__isoc99_sscanf(ptr noundef %4, ptr noundef nonnull @.str.115, ptr noundef nonnull %5, ptr noundef nonnull %6, ptr noundef nonnull %7, ptr noundef nonnull %8, ptr noundef nonnull %9, ptr noundef nonnull %10, ptr noundef nonnull %2) #15
  %.not = icmp eq i32 %11, 6
  br i1 %.not, label %.preheader, label %.loopexit19

12:                                               ; preds = %.preheader
  %indvars.iv.next = add nuw nsw i64 %indvars.iv, 1
  %exitcond.not = icmp eq i64 %indvars.iv.next, 6
  br i1 %exitcond.not, label %.loopexit, label %.preheader, !llvm.loop !180

.preheader:                                       ; preds = %1, %12
  %indvars.iv = phi i64 [ %indvars.iv.next, %12 ], [ 0, %1 ]
  %13 = getelementptr inbounds nuw [6 x float], ptr %5, i64 0, i64 %indvars.iv
  %14 = load float, ptr %13, align 4, !tbaa !61
  %or.cond = fcmp ult float %14, 0.000000e+00
  %15 = fcmp nsz ogt float %14, 1.000000e+00
  %or.cond18 = or i1 %or.cond, %15
  br i1 %or.cond18, label %.loopexit19, label %12

.loopexit19:                                      ; preds = %.preheader, %1
  %16 = getelementptr inbounds nuw i8, ptr %0, i64 8
  %17 = load ptr, ptr %16, align 8, !tbaa !20
  call void (ptr, i32, ptr, ...) @av_log(ptr noundef %17, i32 noundef 16, ptr noundef nonnull @.str.116) #15
  br label %.loopexit

.loopexit:                                        ; preds = %12, %.loopexit19
  %.016 = phi i32 [ -22, %.loopexit19 ], [ 0, %12 ]
  call void @llvm.lifetime.end.p0(i64 2, ptr nonnull %2) #15
  ret i32 %.016
}